; Function Attrs: inlinehint mustprogress optsize uwtable
define internal noundef ptr @"_ZZN8nanobind6detail11func_createILb0ELb1EZL30nanobind_init_test_ndarray_extRNS_7module_EE4$_43NS_7ndarrayIJfNS0_5shapeIJLl2ELl4EEEEEEEJETpTnmJEJNS_5scopeENS_4nameEEEEP7_objectOT1_PFT2_DpT3_ESt16integer_sequenceImJXspT4_EEEDpRKT5_ENUlPvPSC_PhNS_9rv_policyEPNS0_12cleanup_listEE_8__invokeESQ_SR_SS_ST_SV_"(ptr readnone captures(none) %0, ptr readnone captures(none) %1, ptr readnone captures(none) %2, i32 noundef %3, ptr noundef %4) #10 align 2 personality ptr @__gxx_personality_v0 {
  %6 = alloca [2 x i64], align 16
  %7 = alloca %"class.nanobind::capsule", align 8
  %8 = tail call noalias noundef nonnull dereferenceable(32) ptr @_Znam(i64 noundef 32) #27, !noalias !211
  store float 1.000000e+00, ptr %8, align 4, !tbaa !192, !noalias !211
  %9 = getelementptr inbounds nuw i8, ptr %8, i64 4
  store float 2.000000e+00, ptr %9, align 4, !tbaa !192, !noalias !211
  %10 = getelementptr inbounds nuw i8, ptr %8, i64 8
  store float 3.000000e+00, ptr %10, align 4, !tbaa !192, !noalias !211
  %11 = getelementptr inbounds nuw i8, ptr %8, i64 12
  store float 4.000000e+00, ptr %11, align 4, !tbaa !192, !noalias !211
  %12 = getelementptr inbounds nuw i8, ptr %8, i64 16
  store float 5.000000e+00, ptr %12, align 4, !tbaa !192, !noalias !211
  %13 = getelementptr inbounds nuw i8, ptr %8, i64 20
  store float 6.000000e+00, ptr %13, align 4, !tbaa !192, !noalias !211
  %14 = getelementptr inbounds nuw i8, ptr %8, i64 24
  store float 7.000000e+00, ptr %14, align 4, !tbaa !192, !noalias !211
  %15 = getelementptr inbounds nuw i8, ptr %8, i64 28
  store float 8.000000e+00, ptr %15, align 4, !tbaa !192, !noalias !211
  call void @llvm.lifetime.start.p0(i64 16, ptr nonnull %6) #22, !noalias !211
  call void @llvm.memcpy.p0.p0.i64(ptr noundef nonnull align 16 dereferenceable(16) %6, ptr noundef nonnull align 16 dereferenceable(16) @"__const._ZZL30nanobind_init_test_ndarray_extRN8nanobind7module_EENK4$_53clEv.shape", i64 16, i1 false), !noalias !211
  call void @llvm.lifetime.start.p0(i64 8, ptr nonnull %7) #22, !noalias !211
  %16 = tail call noundef ptr @_ZN8nanobind6detail11capsule_newEPKvPKcPDoFvPvE(ptr noundef nonnull %8, ptr noundef null, ptr noundef nonnull @"_ZZZL30nanobind_init_test_ndarray_extRN8nanobind7module_EENK4$_43clEvENUlPvE_8__invokeES3_") #23, !noalias !211
  store ptr %16, ptr %7, align 8, !tbaa !58, !noalias !211
  %17 = invoke noundef ptr @_ZN8nanobind6detail14ndarray_createEPvmPKmP7_objectPKlNS_6dlpack5dtypeEbiic(ptr noundef nonnull %8, i64 noundef 2, ptr noundef nonnull %6, ptr noundef %16, ptr noundef null, i32 73730, i1 noundef zeroext false, i32 noundef 0, i32 noundef 0, i8 noundef signext 0) #21
          to label %"_ZZL30nanobind_init_test_ndarray_extRN8nanobind7module_EENK4$_43clEv.exit" unwind label %18, !noalias !211

18:                                               ; preds = %5
  %19 = landingpad { ptr, i32 }
          cleanup
  %20 = call noundef nonnull align 8 dereferenceable(8) ptr @_ZNKR8nanobind6handle7dec_refEv(ptr noundef nonnull align 8 dereferenceable(8) %7) #23, !noalias !211
  call void @llvm.lifetime.end.p0(i64 8, ptr nonnull %7) #22, !noalias !211
  call void @llvm.lifetime.end.p0(i64 16, ptr nonnull %6) #22, !noalias !211
  resume { ptr, i32 } %19

"_ZZL30nanobind_init_test_ndarray_extRN8nanobind7module_EENK4$_43clEv.exit": ; preds = %5
  %21 = call noundef ptr @_ZN8nanobind6detail15ndarray_inc_refEPNS0_14ndarray_handleE(ptr noundef %17) #23, !noalias !211
  %22 = call noundef nonnull align 8 dereferenceable(8) ptr @_ZNKR8nanobind6handle7dec_refEv(ptr noundef nonnull align 8 dereferenceable(8) %7) #23, !noalias !211
  call void @llvm.lifetime.end.p0(i64 8, ptr nonnull %7) #22, !noalias !211
  call void @llvm.lifetime.end.p0(i64 16, ptr nonnull %6) #22, !noalias !211
  %23 = call noundef ptr @_ZN8nanobind6detail14ndarray_exportEPNS0_14ndarray_handleEiNS_9rv_policyEPNS0_12cleanup_listE(ptr noundef %17, i32 noundef 0, i32 noundef %3, ptr noundef %4) #23
  call void @_ZN8nanobind6detail15ndarray_dec_refEPNS0_14ndarray_handleE(ptr noundef %17) #23
  ret ptr %23
}